target datalayout = "e-m:e-p270:32:32-p271:32:32-p272:64:64-i64:64-i128:128-f80:128-n8:16:32:64-S128"
target triple = "x86_64-pc-linux-gnu"

%class.QModelIndex = type { i32, i32, i64, ptr }
%class.QFlags.6 = type { i32 }
%class.QFlag = type { i32 }

; Function Attrs: inlinehint mustprogress nounwind null_pointer_is_valid sspstrong uwtable
define linkonce_odr noundef i32 @_ZNK5QFlagcvjEv(ptr noundef align 4 dereferenceable_or_null(4) %0) #3 comdat align 2 {
  %2 = alloca ptr, align 8
  store ptr %0, ptr %2, align 8
  %3 = load ptr, ptr %2, align 8
  %4 = getelementptr inbounds nuw %class.QFlag, ptr %3, i32 0, i32 0
  %5 = load i32, ptr %4, align 4
  ret i32 %5
}

; Function Attrs: inlinehint mustprogress nounwind null_pointer_is_valid sspstrong uwtable
define linkonce_odr void @_ZN6QFlagsIN2Qt8ItemFlagEEC2E5QFlag(ptr noundef align 4 dereferenceable_or_null(4) %0, i32 %1) unnamed_addr #3 comdat align 2 {
  %3 = alloca %class.QFlag, align 4
  %4 = alloca ptr, align 8
  %5 = getelementptr inbounds nuw %class.QFlag, ptr %3, i32 0, i32 0
  store i32 %1, ptr %5, align 4
  store ptr %0, ptr %4, align 8
  %6 = load ptr, ptr %4, align 8
  %7 = getelementptr inbounds nuw %class.QFlags.6, ptr %6, i32 0, i32 0
  %8 = call noundef i32 @_ZNK5QFlagcvjEv(ptr noundef align 4 dereferenceable_or_null(4) %3) #21
  store i32 %8, ptr %7, align 4
  ret void
}

; Function Attrs: inlinehint mustprogress nounwind null_pointer_is_valid sspstrong uwtable
define linkonce_odr void @_ZN5QFlagC2Ej(ptr noundef align 4 dereferenceable_or_null(4) %0, i32 noundef %1) unnamed_addr #3 comdat align 2 {
  %3 = alloca ptr, align 8
  %4 = alloca i32, align 4
  store ptr %0, ptr %3, align 8
  store i32 %1, ptr %4, align 4
  %5 = load ptr, ptr %3, align 8
  %6 = getelementptr inbounds nuw %class.QFlag, ptr %5, i32 0, i32 0
  %7 = load i32, ptr %4, align 4
  store i32 %7, ptr %6, align 4
  ret void
}

; Function Attrs: inlinehint mustprogress nounwind null_pointer_is_valid sspstrong uwtable
define linkonce_odr i32 @_ZNK6QFlagsIN2Qt8ItemFlagEEorES1_(ptr noundef align 4 dereferenceable_or_null(4) %0, i32 noundef %1) #3 comdat align 2 {
  %3 = alloca %class.QFlags.6, align 4
  %4 = alloca ptr, align 8
  %5 = alloca i32, align 4
  %6 = alloca %class.QFlag, align 4
  store ptr %0, ptr %4, align 8
  store i32 %1, ptr %5, align 4
  %7 = load ptr, ptr %4, align 8
  %8 = getelementptr inbounds nuw %class.QFlags.6, ptr %7, i32 0, i32 0
  %9 = load i32, ptr %8, align 4
  %10 = load i32, ptr %5, align 4
  %11 = or i32 %9, %10
  call void @_ZN5QFlagC2Ej(ptr noundef align 4 dereferenceable_or_null(4) %6, i32 noundef %11) #21
  %12 = getelementptr inbounds nuw %class.QFlag, ptr %6, i32 0, i32 0
  %13 = load i32, ptr %12, align 4
  call void @_ZN6QFlagsIN2Qt8ItemFlagEEC2E5QFlag(ptr noundef align 4 dereferenceable_or_null(4) %3, i32 %13) #21
  %14 = getelementptr inbounds nuw %class.QFlags.6, ptr %3, i32 0, i32 0
  %15 = load i32, ptr %14, align 4
  ret i32 %15
}

; Function Attrs: inlinehint mustprogress nounwind null_pointer_is_valid sspstrong uwtable
define linkonce_odr void @_ZN6QFlagsIN2Qt8ItemFlagEEC2ES1_(ptr noundef align 4 dereferenceable_or_null(4) %0, i32 noundef %1) unnamed_addr #3 comdat align 2 {
  %3 = alloca ptr, align 8
  %4 = alloca i32, align 4
  store ptr %0, ptr %3, align 8
  store i32 %1, ptr %4, align 4
  %5 = load ptr, ptr %3, align 8
  %6 = getelementptr inbounds nuw %class.QFlags.6, ptr %5, i32 0, i32 0
  %7 = load i32, ptr %4, align 4
  store i32 %7, ptr %6, align 4
  ret void
}

; Function Attrs: inlinehint mustprogress nounwind null_pointer_is_valid sspstrong uwtable
define linkonce_odr noundef align 4 dereferenceable(4) ptr @_ZN6QFlagsIN2Qt8ItemFlagEEoRES2_(ptr noundef align 4 dereferenceable_or_null(4) %0, i32 %1) #3 comdat align 2 {
  %3 = alloca %class.QFlags.6, align 4
  %4 = alloca ptr, align 8
  %5 = getelementptr inbounds nuw %class.QFlags.6, ptr %3, i32 0, i32 0
  store i32 %1, ptr %5, align 4
  store ptr %0, ptr %4, align 8
  %6 = load ptr, ptr %4, align 8
  %7 = getelementptr inbounds nuw %class.QFlags.6, ptr %3, i32 0, i32 0
  %8 = load i32, ptr %7, align 4
  %9 = getelementptr inbounds nuw %class.QFlags.6, ptr %6, i32 0, i32 0
  %10 = load i32, ptr %9, align 4
  %11 = or i32 %10, %8
  store i32 %11, ptr %9, align 4
  ret ptr %6
}

; Function Attrs: inlinehint mustprogress nounwind null_pointer_is_valid sspstrong uwtable
define linkonce_odr i32 @_ZN2QtorENS_8ItemFlagES0_(i32 noundef %0, i32 noundef %1) #3 comdat {
  %3 = alloca %class.QFlags.6, align 4
  %4 = alloca i32, align 4
  %5 = alloca i32, align 4
  %6 = alloca %class.QFlags.6, align 4
  store i32 %0, ptr %4, align 4
  store i32 %1, ptr %5, align 4
  call void @llvm.lifetime.start.p0(i64 4, ptr %6) #21
  %7 = load i32, ptr %4, align 4
  call void @_ZN6QFlagsIN2Qt8ItemFlagEEC2ES1_(ptr noundef align 4 dereferenceable_or_null(4) %6, i32 noundef %7) #21
  %8 = load i32, ptr %5, align 4
  %9 = call i32 @_ZNK6QFlagsIN2Qt8ItemFlagEEorES1_(ptr noundef align 4 dereferenceable_or_null(4) %6, i32 noundef %8) #21
  %10 = getelementptr inbounds nuw %class.QFlags.6, ptr %3, i32 0, i32 0
  store i32 %9, ptr %10, align 4
  call void @llvm.lifetime.end.p0(i64 4, ptr %6) #21
  %11 = getelementptr inbounds nuw %class.QFlags.6, ptr %3, i32 0, i32 0
  %12 = load i32, ptr %11, align 4
  ret i32 %12
}

; Function Attrs: inlinehint mustprogress nounwind null_pointer_is_valid sspstrong uwtable
define linkonce_odr void @_ZN11QModelIndexC2Ev(ptr noundef align 8 dereferenceable_or_null(24) %0) unnamed_addr #3 comdat align 2 {
  %2 = alloca ptr, align 8
  store ptr %0, ptr %2, align 8
  %3 = load ptr, ptr %2, align 8
  %4 = getelementptr inbounds nuw %class.QModelIndex, ptr %3, i32 0, i32 0
  store i32 -1, ptr %4, align 8
  %5 = getelementptr inbounds nuw %class.QModelIndex, ptr %3, i32 0, i32 1
  store i32 -1, ptr %5, align 4
  %6 = getelementptr inbounds nuw %class.QModelIndex, ptr %3, i32 0, i32 2
  store i64 0, ptr %6, align 8
  %7 = getelementptr inbounds nuw %class.QModelIndex, ptr %3, i32 0, i32 3
  store ptr null, ptr %7, align 8
  ret void
}

; Function Attrs: inlinehint mustprogress nounwind null_pointer_is_valid sspstrong uwtable
define linkonce_odr noundef i32 @_ZNK11QModelIndex3rowEv(ptr noundef align 8 dereferenceable_or_null(24) %0) #3 comdat align 2 {
  %2 = alloca ptr, align 8
  store ptr %0, ptr %2, align 8
  %3 = load ptr, ptr %2, align 8
  %4 = getelementptr inbounds nuw %class.QModelIndex, ptr %3, i32 0, i32 0
  %5 = load i32, ptr %4, align 8
  ret i32 %5
}

; Function Attrs: inlinehint mustprogress nounwind null_pointer_is_valid sspstrong uwtable
define linkonce_odr noundef zeroext i1 @_ZNK11QModelIndex7isValidEv(ptr noundef align 8 dereferenceable_or_null(24) %0) #3 comdat align 2 {
  %2 = alloca ptr, align 8
  store ptr %0, ptr %2, align 8
  %3 = load ptr, ptr %2, align 8
  %4 = getelementptr inbounds nuw %class.QModelIndex, ptr %3, i32 0, i32 0
  %5 = load i32, ptr %4, align 8
  %6 = icmp sge i32 %5, 0
  br i1 %6, label %7, label %15

7:                                                ; preds = %1
  %8 = getelementptr inbounds nuw %class.QModelIndex, ptr %3, i32 0, i32 1
  %9 = load i32, ptr %8, align 4
  %10 = icmp sge i32 %9, 0
  br i1 %10, label %11, label %15

11:                                               ; preds = %7
  %12 = getelementptr inbounds nuw %class.QModelIndex, ptr %3, i32 0, i32 3
  %13 = load ptr, ptr %12, align 8
  %14 = icmp ne ptr %13, null
  br label %15

15:                                               ; preds = %11, %7, %1
  %16 = phi i1 [ false, %7 ], [ false, %1 ], [ %14, %11 ]
  ret i1 %16
}

; Function Attrs: inlinehint mustprogress nounwind null_pointer_is_valid sspstrong uwtable
define linkonce_odr noundef align 4 dereferenceable(4) ptr @_ZN6QFlagsIN2Qt8ItemFlagEEoRES1_(ptr noundef align 4 dereferenceable_or_null(4) %0, i32 noundef %1) #3 comdat align 2 {
  %3 = alloca ptr, align 8
  %4 = alloca i32, align 4
  store ptr %0, ptr %3, align 8
  store i32 %1, ptr %4, align 4
  %5 = load ptr, ptr %3, align 8
  %6 = load i32, ptr %4, align 4
  %7 = getelementptr inbounds nuw %class.QFlags.6, ptr %5, i32 0, i32 0
  %8 = load i32, ptr %7, align 4
  %9 = or i32 %8, %6
  store i32 %9, ptr %7, align 4
  ret ptr %5
}

; Function Attrs: mustprogress null_pointer_is_valid sspstrong uwtable
define i32 @_ZNK15FilterListModel5flagsERK11QModelIndex(ptr noundef align 8 dereferenceable_or_null(48) %0, ptr noundef align 8 dereferenceable(24) %1) unnamed_addr #0 align 2 {
  %3 = alloca %class.QFlags.6, align 4
  %4 = alloca ptr, align 8
  %5 = alloca ptr, align 8
  %6 = alloca %class.QModelIndex, align 8
  %7 = alloca %class.QFlags.6, align 4
  store ptr %0, ptr %4, align 8
  store ptr %1, ptr %5, align 8
  %8 = load ptr, ptr %4, align 8
  %9 = load ptr, ptr %5, align 8
  %10 = call i32 @_ZNK18QAbstractListModel5flagsERK11QModelIndex(ptr noundef align 8 dereferenceable_or_null(16) %8, ptr noundef align 8 dereferenceable(24) %9)
  %11 = getelementptr inbounds nuw %class.QFlags.6, ptr %3, i32 0, i32 0
  store i32 %10, ptr %11, align 4
  %12 = call noundef align 4 dereferenceable(4) ptr @_ZN6QFlagsIN2Qt8ItemFlagEEoRES1_(ptr noundef align 4 dereferenceable_or_null(4) %3, i32 noundef 8) #21
  %13 = load ptr, ptr %5, align 8
  %14 = call noundef zeroext i1 @_ZNK11QModelIndex7isValidEv(ptr noundef align 8 dereferenceable_or_null(24) %13) #21
  call void @llvm.lifetime.start.p0(i64 24, ptr %6) #21
  br i1 %14, label %15, label %23

15:                                               ; preds = %2
  %16 = load ptr, ptr %5, align 8
  %17 = call noundef i32 @_ZNK11QModelIndex3rowEv(ptr noundef align 8 dereferenceable_or_null(24) %16) #21
  call void @_ZN11QModelIndexC2Ev(ptr noundef align 8 dereferenceable_or_null(24) %6) #21
  %18 = load ptr, ptr %8, align 8
  %19 = getelementptr inbounds ptr, ptr %18, i64 15
  %20 = load ptr, ptr %19, align 8
  %21 = call noundef i32 %20(ptr noundef align 8 dereferenceable_or_null(48) %8, ptr noundef align 8 dereferenceable(24) %6)
  %22 = icmp sge i32 %17, %21
  br label %23

23:                                               ; preds = %15, %2
  %24 = phi i1 [ true, %2 ], [ %22, %15 ]
  call void @llvm.lifetime.end.p0(i64 24, ptr %6) #21
  br i1 %24, label %25, label %26

25:                                               ; preds = %23
  br label %32

26:                                               ; preds = %23
  %27 = call i32 @_ZN2QtorENS_8ItemFlagES0_(i32 noundef 2, i32 noundef 4) #21
  %28 = getelementptr inbounds nuw %class.QFlags.6, ptr %7, i32 0, i32 0
  store i32 %27, ptr %28, align 4
  %29 = getelementptr inbounds nuw %class.QFlags.6, ptr %7, i32 0, i32 0
  %30 = load i32, ptr %29, align 4
  %31 = call noundef align 4 dereferenceable(4) ptr @_ZN6QFlagsIN2Qt8ItemFlagEEoRES2_(ptr noundef align 4 dereferenceable_or_null(4) %3, i32 %30) #21
  br label %32

32:                                               ; preds = %26, %25
  %33 = getelementptr inbounds nuw %class.QFlags.6, ptr %3, i32 0, i32 0
  %34 = load i32, ptr %33, align 4
  ret i32 %34
}