; Function Attrs: mustprogress null_pointer_is_valid sspstrong uwtable
define range(i32 8, 0) i32 @_ZNK15FilterListModel5flagsERK11QModelIndex(ptr noundef align 8 dereferenceable_or_null(48) %0, ptr noundef align 8 dereferenceable(24) %1) unnamed_addr #0 align 2 {
  %3 = alloca %class.QModelIndex, align 8
  %4 = tail call i32 @_ZNK18QAbstractListModel5flagsERK11QModelIndex(ptr noundef align 8 dereferenceable_or_null(16) %0, ptr noundef align 8 dereferenceable(24) %1)
  %5 = or i32 %4, 8
  %6 = load i32, ptr %1, align 8
  %7 = icmp sgt i32 %6, -1
  %8 = getelementptr inbounds nuw i8, ptr %1, i64 4
  %9 = load i32, ptr %8, align 4
  %10 = icmp sgt i32 %9, -1
  %or.cond = select i1 %7, i1 %10, i1 false
  br i1 %or.cond, label %_ZNK11QModelIndex7isValidEv.exit, label %_ZNK11QModelIndex7isValidEv.exit.thread

_ZNK11QModelIndex7isValidEv.exit.thread:          ; preds = %2
  call void @llvm.lifetime.start.p0(i64 24, ptr nonnull %3) #21
  br label %.critedge

_ZNK11QModelIndex7isValidEv.exit:                 ; preds = %2
  %11 = getelementptr inbounds nuw i8, ptr %1, i64 16
  %12 = load ptr, ptr %11, align 8
  %.not8 = icmp eq ptr %12, null
  call void @llvm.lifetime.start.p0(i64 24, ptr nonnull %3) #21
  br i1 %.not8, label %.critedge, label %13

13:                                               ; preds = %_ZNK11QModelIndex7isValidEv.exit
  store i32 -1, ptr %3, align 8
  %14 = getelementptr inbounds nuw i8, ptr %3, i64 4
  store i32 -1, ptr %14, align 4
  %15 = getelementptr inbounds nuw i8, ptr %3, i64 8
  call void @llvm.memset.p0.i64(ptr noundef nonnull align 8 dereferenceable(16) %15, i8 0, i64 16, i1 false)
  %16 = load ptr, ptr %0, align 8
  %17 = getelementptr inbounds nuw i8, ptr %16, i64 120
  %18 = load ptr, ptr %17, align 8
  %19 = call noundef i32 %18(ptr noundef align 8 dereferenceable_or_null(48) %0, ptr noundef nonnull align 8 dereferenceable(24) %3)
  %.not = icmp slt i32 %6, %19
  call void @llvm.lifetime.end.p0(i64 24, ptr nonnull %3) #21
  %20 = or i32 %4, 14
  %spec.select = select i1 %.not, i32 %20, i32 %5
  br label %21

.critedge:                                        ; preds = %_ZNK11QModelIndex7isValidEv.exit.thread, %_ZNK11QModelIndex7isValidEv.exit
  call void @llvm.lifetime.end.p0(i64 24, ptr nonnull %3) #21
  br label %21

21:                                               ; preds = %13, %.critedge
  %.sroa.0.0 = phi i32 [ %5, %.critedge ], [ %spec.select, %13 ]
  ret i32 %.sroa.0.0
}